target datalayout = "e-m:e-p270:32:32-p271:32:32-p272:64:64-i64:64-i128:128-f80:128-n8:16:32:64-S128"
target triple = "x86_64-pc-linux-gnu"

%struct._lv_obj_t = type { ptr, ptr, ptr, ptr, ptr, %struct.lv_area_t, i32, i16, i16 }
%struct.lv_area_t = type { i32, i32, i32, i32 }
%struct._lv_obj_class_t = type { ptr, ptr, ptr, ptr, ptr, ptr, i32, i32, i32 }

; Function Attrs: nounwind uwtable
define zeroext i1 @lv_obj_is_group_def(ptr noundef %0) #0 {
  %2 = alloca i1, align 1
  %3 = alloca ptr, align 8
  %4 = alloca ptr, align 8
  %5 = alloca i32, align 4
  store ptr %0, ptr %3, align 8, !tbaa !8
  call void @llvm.lifetime.start.p0(i64 8, ptr %4) #3
  %6 = load ptr, ptr %3, align 8, !tbaa !8
  %7 = getelementptr inbounds nuw %struct._lv_obj_t, ptr %6, i32 0, i32 0
  %8 = load ptr, ptr %7, align 8, !tbaa !12
  store ptr %8, ptr %4, align 8, !tbaa !3
  br label %9

9:                                                ; preds = %21, %1
  %10 = load ptr, ptr %4, align 8, !tbaa !3
  %11 = icmp ne ptr %10, null
  br i1 %11, label %12, label %19

12:                                               ; preds = %9
  %13 = load ptr, ptr %4, align 8, !tbaa !3
  %14 = getelementptr inbounds nuw %struct._lv_obj_class_t, ptr %13, i32 0, i32 8
  %15 = load i32, ptr %14, align 8
  %16 = lshr i32 %15, 2
  %17 = and i32 %16, 3
  %18 = icmp eq i32 %17, 0
  br label %19

19:                                               ; preds = %12, %9
  %20 = phi i1 [ false, %9 ], [ %18, %12 ]
  br i1 %20, label %21, label %25

21:                                               ; preds = %19
  %22 = load ptr, ptr %4, align 8, !tbaa !3
  %23 = getelementptr inbounds nuw %struct._lv_obj_class_t, ptr %22, i32 0, i32 0
  %24 = load ptr, ptr %23, align 8, !tbaa !48
  store ptr %24, ptr %4, align 8, !tbaa !3
  br label %9, !llvm.loop !54

25:                                               ; preds = %19
  %26 = load ptr, ptr %4, align 8, !tbaa !3
  %27 = icmp eq ptr %26, null
  br i1 %27, label %28, label %29

28:                                               ; preds = %25
  store i1 false, ptr %2, align 1
  store i32 1, ptr %5, align 4
  br label %36

29:                                               ; preds = %25
  %30 = load ptr, ptr %4, align 8, !tbaa !3
  %31 = getelementptr inbounds nuw %struct._lv_obj_class_t, ptr %30, i32 0, i32 8
  %32 = load i32, ptr %31, align 8
  %33 = lshr i32 %32, 2
  %34 = and i32 %33, 3
  %35 = icmp eq i32 %34, 1
  store i1 %35, ptr %2, align 1
  store i32 1, ptr %5, align 4
  br label %36

36:                                               ; preds = %29, %28
  call void @llvm.lifetime.end.p0(i64 8, ptr %4) #3
  %37 = load i1, ptr %2, align 1
  ret i1 %37
}

; Function Attrs: nounwind uwtable
define void @lv_obj_class_init_obj(ptr noundef %0) #0 {
  %2 = alloca ptr, align 8
  %3 = alloca ptr, align 8
  %4 = alloca ptr, align 8
  store ptr %0, ptr %2, align 8, !tbaa !8
  %5 = load ptr, ptr %2, align 8, !tbaa !8
  %6 = icmp eq ptr %5, null
  br i1 %6, label %7, label %8

7:                                                ; preds = %1
  br label %41

8:                                                ; preds = %1
  %9 = load ptr, ptr %2, align 8, !tbaa !8
  call void @lv_obj_mark_layout_as_dirty(ptr noundef %9)
  call void @lv_obj_enable_style_refresh(i1 noundef zeroext false)
  %10 = load ptr, ptr %2, align 8, !tbaa !8
  call void @lv_theme_apply(ptr noundef %10)
  %11 = load ptr, ptr %2, align 8, !tbaa !8
  %12 = getelementptr inbounds nuw %struct._lv_obj_t, ptr %11, i32 0, i32 0
  %13 = load ptr, ptr %12, align 8, !tbaa !12
  %14 = load ptr, ptr %2, align 8, !tbaa !8
  call void @lv_obj_construct(ptr noundef %13, ptr noundef %14)
  call void @lv_obj_enable_style_refresh(i1 noundef zeroext true)
  %15 = load ptr, ptr %2, align 8, !tbaa !8
  call void @lv_obj_refresh_style(ptr noundef %15, i32 noundef 983040, i8 noundef zeroext -1)
  %16 = load ptr, ptr %2, align 8, !tbaa !8
  %17 = call zeroext i1 @lv_obj_refresh_self_size(ptr noundef %16)
  call void @llvm.lifetime.start.p0(i64 8, ptr %3) #3
  %18 = call ptr @lv_group_get_default()
  store ptr %18, ptr %3, align 8, !tbaa !52
  %19 = load ptr, ptr %3, align 8, !tbaa !52
  %20 = icmp ne ptr %19, null
  br i1 %20, label %21, label %27

21:                                               ; preds = %8
  %22 = load ptr, ptr %2, align 8, !tbaa !8
  %23 = call zeroext i1 @lv_obj_is_group_def(ptr noundef %22)
  br i1 %23, label %24, label %27

24:                                               ; preds = %21
  %25 = load ptr, ptr %3, align 8, !tbaa !52
  %26 = load ptr, ptr %2, align 8, !tbaa !8
  call void @lv_group_add_obj(ptr noundef %25, ptr noundef %26)
  br label %27

27:                                               ; preds = %24, %21, %8
  call void @llvm.lifetime.start.p0(i64 8, ptr %4) #3
  %28 = load ptr, ptr %2, align 8, !tbaa !8
  %29 = call ptr @lv_obj_get_parent(ptr noundef %28)
  store ptr %29, ptr %4, align 8, !tbaa !8
  %30 = load ptr, ptr %4, align 8, !tbaa !8
  %31 = icmp ne ptr %30, null
  br i1 %31, label %32, label %40

32:                                               ; preds = %27
  %33 = load ptr, ptr %4, align 8, !tbaa !8
  %34 = load ptr, ptr %2, align 8, !tbaa !8
  %35 = call i32 @lv_obj_send_event(ptr noundef %33, i32 noundef 42, ptr noundef %34)
  %36 = load ptr, ptr %4, align 8, !tbaa !8
  %37 = load ptr, ptr %2, align 8, !tbaa !8
  %38 = call i32 @lv_obj_send_event(ptr noundef %36, i32 noundef 43, ptr noundef %37)
  %39 = load ptr, ptr %2, align 8, !tbaa !8
  call void @lv_obj_invalidate(ptr noundef %39)
  br label %40

40:                                               ; preds = %32, %27
  call void @llvm.lifetime.end.p0(i64 8, ptr %4) #3
  call void @llvm.lifetime.end.p0(i64 8, ptr %3) #3
  br label %41

41:                                               ; preds = %40, %7
  ret void
}