; Function Attrs: nounwind uwtable
define void @lv_obj_class_init_obj(ptr noundef %0) local_unnamed_addr #0 {
  %2 = icmp eq ptr %0, null
  br i1 %2, label %16, label %3

3:                                                ; preds = %1
  tail call void @lv_obj_mark_layout_as_dirty(ptr noundef nonnull %0) #3
  tail call void @lv_obj_enable_style_refresh(i1 noundef zeroext false) #3
  tail call void @lv_theme_apply(ptr noundef nonnull %0) #3
  %4 = load ptr, ptr %0, align 8, !tbaa !13
  tail call fastcc void @lv_obj_construct(ptr noundef %4, ptr noundef %0)
  tail call void @lv_obj_enable_style_refresh(i1 noundef zeroext true) #3
  tail call void @lv_obj_refresh_style(ptr noundef nonnull %0, i32 noundef 983040, i8 noundef zeroext -1) #3
  %5 = tail call zeroext i1 @lv_obj_refresh_self_size(ptr noundef nonnull %0) #3
  %6 = tail call ptr @lv_group_get_default() #3
  %.not = icmp eq ptr %6, null
  br i1 %.not, label %lv_obj_is_group_def.exit.thread, label %.preheader

.preheader:                                       ; preds = %3, %7
  %.0.in.i = phi ptr [ %.0.i, %7 ], [ %0, %3 ]
  %.0.i = load ptr, ptr %.0.in.i, align 8, !tbaa !47
  %cond.i = icmp eq ptr %.0.i, null
  br i1 %cond.i, label %lv_obj_is_group_def.exit.thread, label %7

7:                                                ; preds = %.preheader
  %8 = getelementptr inbounds nuw i8, ptr %.0.i, i64 56
  %9 = load i32, ptr %8, align 8
  %10 = and i32 %9, 12
  switch i32 %10, label %lv_obj_is_group_def.exit.thread [
    i32 0, label %.preheader
    i32 4, label %11
  ]

11:                                               ; preds = %7
  tail call void @lv_group_add_obj(ptr noundef nonnull %6, ptr noundef nonnull %0) #3
  br label %lv_obj_is_group_def.exit.thread

lv_obj_is_group_def.exit.thread:                  ; preds = %7, %.preheader, %11, %3
  %12 = tail call ptr @lv_obj_get_parent(ptr noundef nonnull %0) #3
  %.not20 = icmp eq ptr %12, null
  br i1 %.not20, label %16, label %13

13:                                               ; preds = %lv_obj_is_group_def.exit.thread
  %14 = tail call i32 @lv_obj_send_event(ptr noundef nonnull %12, i32 noundef 42, ptr noundef nonnull %0) #3
  %15 = tail call i32 @lv_obj_send_event(ptr noundef nonnull %12, i32 noundef 43, ptr noundef nonnull %0) #3
  tail call void @lv_obj_invalidate(ptr noundef nonnull %0) #3
  br label %16

16:                                               ; preds = %lv_obj_is_group_def.exit.thread, %13, %1
  ret void
}